ccopy_reg
_reconstructor
p0
(cpysph.sph.scheme
WCSPHScheme
p1
c__builtin__
object
p2
Ntp3
Rp4
(dp5
S'beta'
p6
F0.0
sS'dim'
p7
I2
sS'hg_correction'
p8
I00
sS'solver'
p9
g0
(cpysph.solver.solver
Solver
p10
g2
Ntp11
Rp12
(dp13
S'kernel'
p14
g0
(cpysph.base.kernels
CubicSpline
p15
g2
Ntp16
Rp17
(dp18
g7
I2
sS'radius_scale'
p19
F2.0
sS'fac'
p20
F0.45472840883398674
sbsS'cfl'
p21
F0.3
sS'n_damp'
p22
I0
sS'integrator'
p23
g0
(cpysph.sph.integrator
PECIntegrator
p24
g2
Ntp25
Rp26
(dp27
S'c_integrator'
p28
NsS'steppers'
p29
(dp30
S'fluid'
p31
g0
(cpysph.sph.integrator_step
WCSPHStep
p32
g2
Ntp33
Rp34
ssS'nnps'
p35
NsS'parallel_manager'
p36
NsS'acceleration_evals'
p37
NsbsS'pfreq'
p38
I100
sS'pid'
p39
NsS'rank'
p40
I0
sS'force_output'
p41
I00
sS'post_stage_callbacks'
p42
(lp43
sS'_damping_factor'
p44
F1.0
sS'output_only_real'
p45
I01
sS'adaptive_timestep'
p46
I00
sS'execute_commands'
p47
NsS'particles'
p48
Nsg37
NsS'fname'
p49
S'Solver'
p50
sS'post_step_callbacks'
p51
(lp52
sS'tf'
p53
F0.0076
sS'disable_output'
p54
I00
sS'fixed_h'
p55
I00
sS'detailed_output'
p56
I00
sS'arrays_to_print'
p57
(lp58
sS'compress_output'
p59
I00
sS'comm'
p60
NsS'output_at_times'
p61
cnumpy.core.multiarray
_reconstruct
p62
(cnumpy
ndarray
p63
(I0
tp64
S'b'
p65
tp66
Rp67
(I1
(I0
tp68
cnumpy
dtype
p69
(S'f8'
p70
I0
I1
tp71
Rp72
(I3
S'<'
p73
NNNI-1
I-1
I0
tp74
bI00
S''
p75
tp76
bsS'dt'
p77
F5e-06
sS'output_directory'
p78
S'Solver_output'
p79
sS'_prev_dt'
p80
NsS'count'
p81
I0
sg7
I2
sS'max_steps'
p82
I2147483648
sS'_epsilon'
p83
cnumpy.core.multiarray
scalar
p84
(g72
S'\xc5\x8f1w-!O<'
p85
tp86
Rp87
sS't'
p88
I0
sS'parallel_output_mode'
p89
S'collected'
p90
sS'in_parallel'
p91
I00
sS'pre_step_callbacks'
p92
(lp93
sbsS'gx'
p94
F0.0
sS'h0'
p95
F0.0325
sS'rho0'
p96
F1.0
sS'gz'
p97
F0.0
sS'fluids'
p98
(lp99
g31
asS'gy'
p100
F0.0
sS'hdx'
p101
F1.3
sS'solids'
p102
(lp103
sS'delta_sph'
p104
I00
sS'summation_density'
p105
I00
sS'delta'
p106
F0.1
sS'tensile_correction'
p107
I00
sS'alpha'
p108
F0.1
sS'update_h'
p109
I00
sS'c0'
p110
F1400.0
sS'nu'
p111
F0.0
sS'gamma'
p112
F7.0
sb.